target datalayout = "e-m:e-p270:32:32-p271:32:32-p272:64:64-i64:64-i128:128-f80:128-n8:16:32:64-S128"
target triple = "x86_64-pc-linux-gnu"

%"class.sat::literal" = type { i32 }
%class.trail = type { ptr }
%"class.euf::th_solver" = type { %"class.sat::extension", %"class.euf::th_model_builder", %"class.euf::th_decompile", %"class.euf::th_internalizer", ptr }
%"class.sat::extension" = type { ptr, i8, i32, %class.symbol, ptr }
%class.symbol = type { ptr }
%"class.euf::th_model_builder" = type { ptr }
%"class.euf::th_decompile" = type { ptr }
%"class.euf::th_internalizer" = type { ptr, %class.ptr_vector, %class.svector.1 }
%class.svector.1 = type { %class.vector.2 }
%class.vector.2 = type { ptr }
%class.ptr_vector = type { %class.vector.0 }
%class.vector.0 = type { ptr }
%class.svector.3 = type { %class.vector.4 }
%class.vector.4 = type { ptr }
%class.svector.7 = type { %class.vector.8 }
%class.vector.8 = type { ptr }
%class.ptr_vector.9 = type { %class.vector.10 }
%class.vector.10 = type { ptr }
%class.arith_util = type { ptr, ptr }
%class.bv_util = type { %class.bv_recognizers, ptr, ptr }
%class.bv_recognizers = type { i32 }
%class.svector.29 = type { %class.vector.30 }
%class.vector.30 = type { ptr }
%class.svector.5 = type { %class.vector.6 }
%class.vector.6 = type { ptr }
%class.vector.11 = type { ptr }
%class.svector.180 = type { %class.vector.181 }
%class.vector.181 = type { ptr }
%"class.bv::solver" = type { %"class.euf::th_euf_solver.base", %class.svector.5, i32, i32, %class.bv_util, %class.arith_util, %"struct.bv::solver::stats", %"class.bv::ackerman", %class.bit_blaster, %class.union_find, %class.vector.11, %class.svector.3, %class.vector.12, %class.ptr_vector.13, %class.map, %class.vector.17, %class.svector.5, %class.svector.18, %class.svector.3, i32, %"class.sat::literal", %class.ptr_vector, %class.obj_map, %class.obj_map.24, i8, [2 x %class.svector.29] }
%"class.euf::th_euf_solver.base" = type <{ %"class.euf::th_solver", ptr, %class.ptr_vector, %class.svector.3, i32 }>
%"struct.bv::solver::stats" = type { i32, i32, i32, i32, i32, i32, i32, i32 }
%"class.bv::ackerman" = type { ptr, %class.hashtable, ptr, ptr, i32, i32, i32, i32, %class.svector.7 }
%class.hashtable = type { %class.core_hashtable.base, [4 x i8] }
%class.core_hashtable.base = type <{ ptr, i32, i32, i32 }>
%class.bit_blaster = type { %class.bit_blaster_tpl, %class.bv_util, %class.bool_rewriter }
%class.bit_blaster_tpl = type { %class.bit_blaster_cfg, i64 }
%class.bit_blaster_cfg = type { ptr, ptr, ptr }
%class.bool_rewriter = type { ptr, i8, i8, i8, i8, i8, i8, i32, i8, i32, i32, i8, %class.ptr_vector.9, %class.ptr_vector.9, %class.svector.3, %class.svector.3 }
%class.union_find = type { ptr, ptr, %class.svector.3, %class.svector.3, %class.svector.3, %"class.union_find<bv::solver>::mk_var_trail" }
%"class.union_find<bv::solver>::mk_var_trail" = type { %class.trail, ptr }
%class.vector.12 = type { ptr }
%class.ptr_vector.13 = type { %class.vector.14 }
%class.vector.14 = type { ptr }
%class.map = type { %class.table2map }
%class.table2map = type { %class.core_hashtable.15 }
%class.core_hashtable.15 = type <{ [8 x i8], ptr, i32, i32, i32, [4 x i8] }>
%class.vector.17 = type { ptr }
%class.svector.18 = type { %class.vector.19 }
%class.vector.19 = type { ptr }
%class.obj_map = type { %class.core_hashtable.20 }
%class.core_hashtable.20 = type <{ ptr, i32, i32, i32, [4 x i8] }>
%class.obj_map.24 = type { %class.core_hashtable.25 }
%class.core_hashtable.25 = type <{ ptr, i32, i32, i32, [4 x i8] }>
%"struct.bv::solver::zero_one_bit" = type { i32, i32 }

; Function Attrs: mustprogress uwtable
define linkonce_odr hidden noundef nonnull align 8 dereferenceable(8) ptr @_ZN6vectorIN2bv6solver12zero_one_bitELb0EjE9push_backEOS2_(ptr noundef nonnull align 8 dereferenceable(8) %0, ptr noundef nonnull align 4 dereferenceable(8) %1) #4 comdat align 2 {
  %3 = alloca ptr, align 8
  %4 = alloca ptr, align 8
  store ptr %0, ptr %3, align 8, !tbaa !82
  store ptr %1, ptr %4, align 8, !tbaa !291
  %5 = load ptr, ptr %3, align 8
  %6 = getelementptr inbounds nuw %class.vector.181, ptr %5, i32 0, i32 0
  %7 = load ptr, ptr %6, align 8, !tbaa !293
  %8 = icmp eq ptr %7, null
  br i1 %8, label %19, label %9

9:                                                ; preds = %2
  %10 = getelementptr inbounds nuw %class.vector.181, ptr %5, i32 0, i32 0
  %11 = load ptr, ptr %10, align 8, !tbaa !293
  %12 = getelementptr inbounds i32, ptr %11, i64 -1
  %13 = load i32, ptr %12, align 4, !tbaa !57
  %14 = getelementptr inbounds nuw %class.vector.181, ptr %5, i32 0, i32 0
  %15 = load ptr, ptr %14, align 8, !tbaa !293
  %16 = getelementptr inbounds i32, ptr %15, i64 -2
  %17 = load i32, ptr %16, align 4, !tbaa !57
  %18 = icmp eq i32 %13, %17
  br i1 %18, label %19, label %20

19:                                               ; preds = %9, %2
  call void @_ZN6vectorIN2bv6solver12zero_one_bitELb0EjE13expand_vectorEv(ptr noundef nonnull align 8 dereferenceable(8) %5)
  br label %20

20:                                               ; preds = %19, %9
  %21 = getelementptr inbounds nuw %class.vector.181, ptr %5, i32 0, i32 0
  %22 = load ptr, ptr %21, align 8, !tbaa !293
  %23 = getelementptr inbounds nuw %class.vector.181, ptr %5, i32 0, i32 0
  %24 = load ptr, ptr %23, align 8, !tbaa !293
  %25 = getelementptr inbounds i32, ptr %24, i64 -1
  %26 = load i32, ptr %25, align 4, !tbaa !57
  %27 = zext i32 %26 to i64
  %28 = getelementptr inbounds nuw %"struct.bv::solver::zero_one_bit", ptr %22, i64 %27
  %29 = load ptr, ptr %4, align 8, !tbaa !291
  call void @llvm.memcpy.p0.p0.i64(ptr align 4 %28, ptr align 4 %29, i64 8, i1 false), !tbaa.struct !295
  %30 = getelementptr inbounds nuw %class.vector.181, ptr %5, i32 0, i32 0
  %31 = load ptr, ptr %30, align 8, !tbaa !293
  %32 = getelementptr inbounds i32, ptr %31, i64 -1
  %33 = load i32, ptr %32, align 4, !tbaa !57
  %34 = add i32 %33, 1
  store i32 %34, ptr %32, align 4, !tbaa !57
  ret ptr %5
}

; Function Attrs: mustprogress nounwind uwtable
define linkonce_odr hidden void @_ZN2bv6solver12zero_one_bitC2Eijb(ptr noundef nonnull align 4 dereferenceable(8) %0, i32 noundef %1, i32 noundef %2, i1 noundef zeroext %3) unnamed_addr #6 comdat align 2 {
  %5 = alloca ptr, align 8
  %6 = alloca i32, align 4
  %7 = alloca i32, align 4
  %8 = alloca i8, align 1
  store ptr %0, ptr %5, align 8, !tbaa !291
  store i32 %1, ptr %6, align 4, !tbaa !57
  store i32 %2, ptr %7, align 4, !tbaa !57
  %9 = zext i1 %3 to i8
  store i8 %9, ptr %8, align 1, !tbaa !95
  %10 = load ptr, ptr %5, align 8
  %11 = getelementptr inbounds nuw %"struct.bv::solver::zero_one_bit", ptr %10, i32 0, i32 0
  %12 = load i32, ptr %6, align 4, !tbaa !57
  store i32 %12, ptr %11, align 4, !tbaa !297
  %13 = getelementptr inbounds nuw %"struct.bv::solver::zero_one_bit", ptr %10, i32 0, i32 1
  %14 = load i32, ptr %7, align 4, !tbaa !57
  %15 = load i32, ptr %13, align 4
  %16 = and i32 %14, 2147483647
  %17 = and i32 %15, -2147483648
  %18 = or i32 %17, %16
  store i32 %18, ptr %13, align 4
  %19 = getelementptr inbounds nuw %"struct.bv::solver::zero_one_bit", ptr %10, i32 0, i32 1
  %20 = load i8, ptr %8, align 1, !tbaa !95, !range !97, !noundef !98
  %21 = trunc i8 %20 to i1
  %22 = zext i1 %21 to i32
  %23 = load i32, ptr %19, align 4
  %24 = and i32 %22, 1
  %25 = shl i32 %24, 31
  %26 = and i32 %23, 2147483647
  %27 = or i32 %26, %25
  store i32 %27, ptr %19, align 4
  ret void
}

; Function Attrs: mustprogress nounwind uwtable
define linkonce_odr hidden noundef nonnull align 8 dereferenceable(8) ptr @_ZN6vectorI7svectorIN2bv6solver12zero_one_bitEjELb1EjEixEj(ptr noundef nonnull align 8 dereferenceable(8) %0, i32 noundef %1) #6 comdat align 2 {
  %3 = alloca ptr, align 8
  %4 = alloca i32, align 4
  store ptr %0, ptr %3, align 8, !tbaa !76
  store i32 %1, ptr %4, align 4, !tbaa !57
  %5 = load ptr, ptr %3, align 8
  %6 = getelementptr inbounds nuw %class.vector.12, ptr %5, i32 0, i32 0
  %7 = load ptr, ptr %6, align 8, !tbaa !80
  %8 = load i32, ptr %4, align 4, !tbaa !57
  %9 = zext i32 %8 to i64
  %10 = getelementptr inbounds nuw %class.svector.180, ptr %7, i64 %9
  ret ptr %10
}

; Function Attrs: inlinehint mustprogress nounwind uwtable
define linkonce_odr hidden noundef zeroext i1 @_ZN3sateqERKNS_7literalES2_(ptr noundef nonnull align 4 dereferenceable(4) %0, ptr noundef nonnull align 4 dereferenceable(4) %1) #10 comdat {
  %3 = alloca ptr, align 8
  %4 = alloca ptr, align 8
  store ptr %0, ptr %3, align 8, !tbaa !100
  store ptr %1, ptr %4, align 8, !tbaa !100
  %5 = load ptr, ptr %3, align 8, !tbaa !100
  %6 = getelementptr inbounds nuw %"class.sat::literal", ptr %5, i32 0, i32 0
  %7 = load i32, ptr %6, align 4, !tbaa !102
  %8 = load ptr, ptr %4, align 8, !tbaa !100
  %9 = getelementptr inbounds nuw %"class.sat::literal", ptr %8, i32 0, i32 0
  %10 = load i32, ptr %9, align 4, !tbaa !102
  %11 = icmp eq i32 %7, %10
  ret i1 %11
}

; Function Attrs: mustprogress nounwind uwtable
define linkonce_odr hidden noundef nonnull align 4 dereferenceable(4) ptr @_ZN6vectorIN3sat7literalELb0EjEixEj(ptr noundef nonnull align 8 dereferenceable(8) %0, i32 noundef %1) #6 comdat align 2 {
  %3 = alloca ptr, align 8
  %4 = alloca i32, align 4
  store ptr %0, ptr %3, align 8, !tbaa !70
  store i32 %1, ptr %4, align 4, !tbaa !57
  %5 = load ptr, ptr %3, align 8
  %6 = getelementptr inbounds nuw %class.vector.6, ptr %5, i32 0, i32 0
  %7 = load ptr, ptr %6, align 8, !tbaa !265
  %8 = load i32, ptr %4, align 4, !tbaa !57
  %9 = zext i32 %8 to i64
  %10 = getelementptr inbounds nuw %"class.sat::literal", ptr %7, i64 %9
  ret ptr %10
}

; Function Attrs: mustprogress nounwind uwtable
define linkonce_odr hidden noundef nonnull align 8 dereferenceable(8) ptr @_ZN6vectorI7svectorIN3sat7literalEjELb1EjEixEj(ptr noundef nonnull align 8 dereferenceable(8) %0, i32 noundef %1) #6 comdat align 2 {
  %3 = alloca ptr, align 8
  %4 = alloca i32, align 4
  store ptr %0, ptr %3, align 8, !tbaa !64
  store i32 %1, ptr %4, align 4, !tbaa !57
  %5 = load ptr, ptr %3, align 8
  %6 = getelementptr inbounds nuw %class.vector.11, ptr %5, i32 0, i32 0
  %7 = load ptr, ptr %6, align 8, !tbaa !68
  %8 = load i32, ptr %4, align 4, !tbaa !57
  %9 = zext i32 %8 to i64
  %10 = getelementptr inbounds nuw %class.svector.5, ptr %7, i64 %9
  ret ptr %10
}

; Function Attrs: mustprogress uwtable
define hidden void @_ZN2bv6solver23register_true_false_bitEij(ptr noundef nonnull align 8 dereferenceable(640) %0, i32 noundef %1, i32 noundef %2) #4 align 2 {
  %4 = alloca ptr, align 8
  %5 = alloca i32, align 4
  %6 = alloca i32, align 4
  %7 = alloca %"class.sat::literal", align 4
  %8 = alloca i8, align 1
  %9 = alloca %"class.sat::literal", align 4
  %10 = alloca ptr, align 8
  %11 = alloca %"struct.bv::solver::zero_one_bit", align 4
  store ptr %0, ptr %4, align 8, !tbaa !3
  store i32 %1, ptr %5, align 4, !tbaa !57
  store i32 %2, ptr %6, align 4, !tbaa !57
  %12 = load ptr, ptr %4, align 8
  call void @llvm.lifetime.start.p0(i64 4, ptr %7) #3
  %13 = getelementptr inbounds nuw %"class.bv::solver", ptr %12, i32 0, i32 10
  %14 = load i32, ptr %5, align 4, !tbaa !57
  %15 = call noundef nonnull align 8 dereferenceable(8) ptr @_ZN6vectorI7svectorIN3sat7literalEjELb1EjEixEj(ptr noundef nonnull align 8 dereferenceable(8) %13, i32 noundef %14)
  %16 = load i32, ptr %6, align 4, !tbaa !57
  %17 = call noundef nonnull align 4 dereferenceable(4) ptr @_ZN6vectorIN3sat7literalELb0EjEixEj(ptr noundef nonnull align 8 dereferenceable(8) %15, i32 noundef %16)
  call void @llvm.memcpy.p0.p0.i64(ptr align 4 %7, ptr align 4 %17, i64 4, i1 false), !tbaa.struct !99
  call void @llvm.lifetime.start.p0(i64 1, ptr %8) #3
  call void @llvm.lifetime.start.p0(i64 4, ptr %9) #3
  %18 = call i32 @_ZN2bv6solver7mk_trueEv(ptr noundef nonnull align 8 dereferenceable(640) %12)
  %19 = getelementptr inbounds nuw %"class.sat::literal", ptr %9, i32 0, i32 0
  store i32 %18, ptr %19, align 4
  %20 = call noundef zeroext i1 @_ZN3sateqERKNS_7literalES2_(ptr noundef nonnull align 4 dereferenceable(4) %7, ptr noundef nonnull align 4 dereferenceable(4) %9)
  call void @llvm.lifetime.end.p0(i64 4, ptr %9) #3
  %21 = zext i1 %20 to i8
  store i8 %21, ptr %8, align 1, !tbaa !95
  call void @llvm.lifetime.start.p0(i64 8, ptr %10) #3
  %22 = getelementptr inbounds nuw %"class.bv::solver", ptr %12, i32 0, i32 12
  %23 = load i32, ptr %5, align 4, !tbaa !57
  %24 = call noundef nonnull align 8 dereferenceable(8) ptr @_ZN6vectorI7svectorIN2bv6solver12zero_one_bitEjELb1EjEixEj(ptr noundef nonnull align 8 dereferenceable(8) %22, i32 noundef %23)
  store ptr %24, ptr %10, align 8, !tbaa !78
  %25 = load ptr, ptr %10, align 8, !tbaa !78
  call void @llvm.lifetime.start.p0(i64 8, ptr %11) #3
  %26 = load i32, ptr %5, align 4, !tbaa !57
  %27 = load i32, ptr %6, align 4, !tbaa !57
  %28 = load i8, ptr %8, align 1, !tbaa !95, !range !97, !noundef !98
  %29 = trunc i8 %28 to i1
  call void @_ZN2bv6solver12zero_one_bitC2Eijb(ptr noundef nonnull align 4 dereferenceable(8) %11, i32 noundef %26, i32 noundef %27, i1 noundef zeroext %29)
  %30 = call noundef nonnull align 8 dereferenceable(8) ptr @_ZN6vectorIN2bv6solver12zero_one_bitELb0EjE9push_backEOS2_(ptr noundef nonnull align 8 dereferenceable(8) %25, ptr noundef nonnull align 4 dereferenceable(8) %11)
  call void @llvm.lifetime.end.p0(i64 8, ptr %11) #3
  call void @llvm.lifetime.end.p0(i64 8, ptr %10) #3
  call void @llvm.lifetime.end.p0(i64 1, ptr %8) #3
  call void @llvm.lifetime.end.p0(i64 4, ptr %7) #3
  ret void
}