; Function Attrs: mustprogress uwtable
define hidden void @_ZN2bv6solver23register_true_false_bitEij(ptr noundef nonnull align 8 dereferenceable(640) %0, i32 noundef %1, i32 noundef %2) local_unnamed_addr #3 align 2 {
  %4 = getelementptr inbounds nuw i8, ptr %0, i64 456
  %5 = load ptr, ptr %4, align 8, !tbaa !53
  %6 = zext i32 %1 to i64
  %7 = getelementptr inbounds nuw %class.svector.5, ptr %5, i64 %6
  %8 = load ptr, ptr %7, align 8, !tbaa !50
  %9 = zext i32 %2 to i64
  %10 = getelementptr inbounds nuw %"class.sat::literal", ptr %8, i64 %9
  %11 = load i32, ptr %10, align 4, !tbaa !47
  %12 = tail call i32 @_ZN2bv6solver7mk_trueEv(ptr noundef nonnull align 8 dereferenceable(640) %0)
  %13 = getelementptr inbounds nuw i8, ptr %0, i64 472
  %14 = load ptr, ptr %13, align 8, !tbaa !61
  %15 = getelementptr inbounds nuw %class.svector.180, ptr %14, i64 %6
  %16 = load ptr, ptr %15, align 8, !tbaa !58
  %17 = icmp eq ptr %16, null
  br i1 %17, label %24, label %18

18:                                               ; preds = %3
  %19 = getelementptr inbounds i8, ptr %16, i64 -4
  %20 = load i32, ptr %19, align 4, !tbaa !47
  %21 = getelementptr inbounds i8, ptr %16, i64 -8
  %22 = load i32, ptr %21, align 4, !tbaa !47
  %23 = icmp eq i32 %20, %22
  br i1 %23, label %24, label %_ZN6vectorIN2bv6solver12zero_one_bitELb0EjE9push_backEOS2_.exit

24:                                               ; preds = %18, %3
  tail call void @_ZN6vectorIN2bv6solver12zero_one_bitELb0EjE13expand_vectorEv(ptr noundef nonnull align 8 dereferenceable(8) %15)
  %.pre.i = load ptr, ptr %15, align 8, !tbaa !58
  %.phi.trans.insert.i = getelementptr inbounds i8, ptr %.pre.i, i64 -4
  %.pre2.i = load i32, ptr %.phi.trans.insert.i, align 4, !tbaa !47
  br label %_ZN6vectorIN2bv6solver12zero_one_bitELb0EjE9push_backEOS2_.exit

_ZN6vectorIN2bv6solver12zero_one_bitELb0EjE9push_backEOS2_.exit: ; preds = %18, %24
  %25 = phi i32 [ %.pre2.i, %24 ], [ %20, %18 ]
  %26 = phi ptr [ %.pre.i, %24 ], [ %16, %18 ]
  %27 = icmp eq i32 %11, %12
  %28 = select i1 %27, i32 -2147483648, i32 0
  %29 = and i32 %2, 2147483647
  %30 = or disjoint i32 %28, %29
  %31 = zext i32 %25 to i64
  %32 = getelementptr inbounds nuw %"struct.bv::solver::zero_one_bit", ptr %26, i64 %31
  %.sroa.4.0.insert.ext = zext i32 %30 to i64
  %.sroa.4.0.insert.shift = shl nuw i64 %.sroa.4.0.insert.ext, 32
  %.sroa.0.0.insert.insert = or disjoint i64 %.sroa.4.0.insert.shift, %6
  store i64 %.sroa.0.0.insert.insert, ptr %32, align 4
  %33 = load ptr, ptr %15, align 8, !tbaa !58
  %34 = getelementptr inbounds i8, ptr %33, i64 -4
  %35 = load i32, ptr %34, align 4, !tbaa !47
  %36 = add i32 %35, 1
  store i32 %36, ptr %34, align 4, !tbaa !47
  ret void
}